Certificate:
    Data:
        Version: 3 (0x2)
        Serial Number: 2 (0x2)
    Signature Algorithm: sha256WithRSAEncryption
        Issuer: CN=192.168.65.2@1498844835
        Validity
            Not Before: Jun 30 17:47:16 2017 GMT
            Not After : Jun 28 17:47:16 2027 GMT
        Subject: O=system:masters, CN=kubecfg
        Subject Public Key Info:
            Public Key Algorithm: rsaEncryption
                Public-Key: (2048 bit)
                Modulus:
                    00:c0:03:72:27:da:f0:8e:f8:89:12:40:b7:97:91:
                    0b:6b:b4:68:04:55:4c:9e:d8:12:76:3e:ed:fa:2d:
                    33:2c:db:47:6d:62:80:d5:96:1f:21:c7:ff:a2:63:
                    65:dc:99:75:17:65:ec:d5:49:57:77:4f:3e:12:da:
                    75:33:2b:06:3a:f3:bd:86:8c:3d:99:1a:27:7f:fd:
                    00:54:f6:09:22:73:3a:ac:ac:62:61:87:d7:c4:3d:
                    25:42:81:99:b2:80:29:a7:6c:b1:ea:87:26:f7:9e:
                    e8:7d:d8:ea:4c:cb:9b:1c:f0:bb:fd:10:65:26:43:
                    84:29:37:89:3e:57:1c:67:47:85:3d:92:84:55:6f:
                    4b:cc:59:6b:4e:9a:36:43:c3:e9:95:59:af:a7:3e:
                    6b:e7:2b:c0:6e:f2:74:eb:66:b8:64:51:f3:37:2a:
                    00:b8:b7:89:13:f7:be:d8:c2:66:29:47:63:8b:c6:
                    07:e0:c8:67:76:49:21:cb:cb:a9:fa:cd:c6:e4:e5:
                    de:60:e9:8d:79:e8:a2:ac:c0:e0:42:e0:72:65:4d:
                    3e:5a:50:4c:7a:3e:fa:ae:89:75:f1:dd:37:fb:67:
                    0a:74:79:b6:6d:36:0e:b5:28:aa:87:de:57:57:37:
                    4b:85:4a:9b:f1:8c:5e:14:79:a4:55:39:d4:6d:08:
                    cd:41
                Exponent: 65537 (0x10001)
        X509v3 extensions:
            X509v3 Basic Constraints:
                CA:FALSE
            X509v3 Subject Key Identifier:
                D5:40:D5:26:CC:B0:D2:00:E7:67:90:26:A4:BE:90:88:BD:2E:CB:EE
            X509v3 Authority Key Identifier:
                keyid:6A:93:29:4F:C2:F9:D0:4A:38:28:FB:1D:A5:04:9D:BB:A4:CF:69:75
                DirName:/CN=192.168.65.2@1498844835
                serial:BD:01:62:0E:46:E7:9B:4F

            X509v3 Extended Key Usage:
                TLS Web Client Authentication
            X509v3 Key Usage:
                Digital Signature
    Signature Algorithm: sha256WithRSAEncryption
         05:08:56:71:55:48:37:5b:7a:1d:c9:64:89:0c:a0:30:f8:3a:
         2b:df:34:2f:76:67:c9:bc:5d:69:7b:c5:e6:25:b9:8d:62:d1:
         0b:c3:57:cc:af:dc:b0:ee:51:28:56:76:81:63:ef:1f:fd:bf:
         85:c9:71:0b:2b:3c:7f:1c:68:b8:ba:ce:c4:7b:2b:b4:0f:08:
         7f:72:04:43:fd:db:1f:3c:18:42:a9:23:e3:76:64:24:be:ae:
         ba:da:d1:d4:d9:02:72:19:7c:b4:e7:c6:85:c6:3d:4b:6f:64:
         e9:0c:da:54:c1:3f:1c:09:b4:b3:e2:c4:e6:18:8c:b1:fb:74:
         92:5c:f8:58:e8:3e:30:8e:3d:fd:fa:10:04:e4:b1:2d:07:46:
         90:f5:00:7d:91:52:be:be:3c:ec:98:e8:d5:c2:cc:f9:d8:17:
         c8:b8:be:a0:21:12:85:92:ce:1d:43:5d:33:af:69:14:6a:4a:
         3a:e3:99:6f:f9:fd:e9:0b:a2:3b:ad:00:80:bb:ed:e7:f1:44:
         3a:9a:35:9e:ef:29:d3:1c:71:c4:be:1d:10:55:b9:2e:04:b2:
         04:5a:41:fe:a1:a4:3b:2b:84:6c:b7:1d:24:30:06:b7:8c:67:
         67:5e:46:18:fe:a7:6f:df:bf:5e:e8:82:8c:98:42:46:c8:2c:
         66:64:00:5f
-----BEGIN CERTIFICATE-----
MIIDbDCCAlSgAwIBAgIBAjANBgkqhkiG9w0BAQsFADAiMSAwHgYDVQQDDBcxOTIu
MTY4LjY1LjJAMTQ5ODg0NDgzNTAeFw0xNzA2MzAxNzQ3MTZaFw0yNzA2MjgxNzQ3
MTZaMCsxFzAVBgNVBAoMDnN5c3RlbTptYXN0ZXJzMRAwDgYDVQQDDAdrdWJlY2Zn
MIIBIjANBgkqhkiG9w0BAQEFAAOCAQ8AMIIBCgKCAQEAwANyJ9rwjviJEkC3l5EL
a7RoBFVMntgSdj7t+i0zLNtHbWKA1ZYfIcf/omNl3Jl1F2Xs1UlXd08+Etp1MysG
OvO9how9mRonf/0AVPYJInM6rKxiYYfXxD0lQoGZsoApp2yx6ocm957ofdjqTMub
HPC7/RBlJkOEKTeJPlccZ0eFPZKEVW9LzFlrTpo2Q8PplVmvpz5r5yvAbvJ062a4
ZFHzNyoAuLeJE/e+2MJmKUdji8YH4Mhndkkhy8up+s3G5OXeYOmNeeiirMDgQuBy
ZU0+WlBMej76rol18d03+2cKdHm2bTYOtSiqh95XVzdLhUqb8YxeFHmkVTnUbQjN
QQIDAQABo4GjMIGgMAkGA1UdEwQCMAAwHQYDVR0OBBYEFNVA1SbMsNIA52eQJqS+
kIi9LsvuMFIGA1UdIwRLMEmAFGqTKU/C+dBKOCj7HaUEnbukz2l1oSakJDAiMSAw
HgYDVQQDDBcxOTIuMTY4LjY1LjJAMTQ5ODg0NDgzNYIJAL0BYg5G55tPMBMGA1Ud
JQQMMAoGCCsGAQUFBwMCMAsGA1UdDwQEAwIHgDANBgkqhkiG9w0BAQsFAAOCAQEA
BQhWcVVIN1t6HclkiQygMPg6K980L3ZnybxdaXvF5iW5jWLRC8NXzK/csO5RKFZ2
gWPvH/2/hclxCys8fxxouLrOxHsrtA8If3IEQ/3bHzwYQqkj43ZkJL6uutrR1NkC
chl8tOfGhcY9S29k6QzaVME/HAm0s+LE5hiMsft0klz4WOg+MI49/foQBOSxLQdG
kPUAfZFSvr487Jjo1cLM+dgXyLi+oCEShZLOHUNdM69pFGpKOuOZb/n96QuiO60A
gLvt5/FEOpo1nu8p0xxxxL4dEFW5LgSyBFpB/qGkOyuEbLcdJDAGt4xnZ15GGP6n
b9+/XuiCjJhCRsgsZmQAXw==
-----END CERTIFICATE-----

